; Function Attrs: mustprogress uwtable
define hidden void @_ZNK6Assimp3IFC12BoundedCurve14SampleDiscreteERNS0_8TempMeshE(ptr noundef nonnull align 8 dereferenceable(24) %0, ptr noundef nonnull align 8 dereferenceable(48) %1) local_unnamed_addr #1 align 2 {
  %3 = load ptr, ptr %0, align 8
  %4 = getelementptr inbounds nuw i8, ptr %3, i64 40
  %5 = load ptr, ptr %4, align 8
  %6 = tail call { double, double } %5(ptr noundef nonnull align 8 dereferenceable(24) %0)
  %7 = extractvalue { double, double } %6, 0
  %8 = extractvalue { double, double } %6, 1
  %9 = load ptr, ptr %0, align 8
  %10 = getelementptr inbounds nuw i8, ptr %9, i64 56
  %11 = load ptr, ptr %10, align 8
  tail call void %11(ptr noundef nonnull align 8 dereferenceable(24) %0, ptr noundef nonnull align 8 dereferenceable(48) %1, double noundef %7, double noundef %8)
  ret void
}